; Function Attrs: nounwind uwtable
define noalias nonnull ptr @l_Array_forIn_x27Unsafe_loop___at_Lean_Meta_mkSimpCongrTheorem___spec__6___lambda__1(ptr noundef %0, ptr readnone captures(none) %1, ptr readnone captures(none) %2, ptr readnone captures(none) %3, ptr readnone captures(none) %4, ptr readnone captures(none) %5, ptr noundef %6) local_unnamed_addr #1 {
  %8 = ptrtoint ptr %0 to i64
  %9 = and i64 %8, 1
  %.not = icmp eq i64 %9, 0
  br i1 %.not, label %.critedge.i, label %10, !prof !16

10:                                               ; preds = %7
  %11 = lshr i64 %8, 1
  %12 = add nuw i64 %11, 1
  %13 = icmp sgt i64 %12, -1
  br i1 %13, label %14, label %18, !prof !11

14:                                               ; preds = %10
  %15 = shl nuw i64 %12, 1
  %16 = or disjoint i64 %15, 1
  %17 = inttoptr i64 %16 to ptr
  br label %lean_nat_add.exit

18:                                               ; preds = %10
  %19 = tail call ptr @lean_big_usize_to_nat(i64 noundef %12) #5
  br label %lean_nat_add.exit

.critedge.i:                                      ; preds = %7
  %20 = tail call ptr @lean_nat_big_add(ptr noundef %0, ptr noundef nonnull inttoptr (i64 3 to ptr)) #5
  br label %lean_nat_add.exit

lean_nat_add.exit:                                ; preds = %18, %14, %.critedge.i
  %.0.i = phi ptr [ %20, %.critedge.i ], [ %17, %14 ], [ %19, %18 ]
  tail call void @lean_inc_heartbeat() #5
  %21 = tail call noalias ptr @mi_malloc_small(i64 noundef 16) #5
  %22 = icmp eq ptr %21, null
  br i1 %22, label %23, label %lean_alloc_ctor.exit

23:                                               ; preds = %lean_nat_add.exit
  tail call void @lean_internal_panic_out_of_memory() #6
  unreachable

lean_alloc_ctor.exit:                             ; preds = %lean_nat_add.exit
  %24 = getelementptr inbounds nuw i8, ptr %21, i64 4
  store i32 1, ptr %21, align 4, !tbaa !4
  store i32 16842768, ptr %24, align 4
  %25 = getelementptr inbounds nuw i8, ptr %21, i64 8
  store ptr %.0.i, ptr %25, align 8, !tbaa !9
  tail call void @lean_inc_heartbeat() #5
  %26 = tail call noalias ptr @mi_malloc_small(i64 noundef 24) #5
  %27 = icmp eq ptr %26, null
  br i1 %27, label %28, label %lean_alloc_ctor.exit10

28:                                               ; preds = %lean_alloc_ctor.exit
  tail call void @lean_internal_panic_out_of_memory() #6
  unreachable

lean_alloc_ctor.exit10:                           ; preds = %lean_alloc_ctor.exit
  %29 = getelementptr inbounds nuw i8, ptr %26, i64 4
  store i32 1, ptr %26, align 4, !tbaa !4
  store i32 131096, ptr %29, align 4
  %30 = getelementptr inbounds nuw i8, ptr %26, i64 8
  store ptr %21, ptr %30, align 8, !tbaa !9
  %31 = getelementptr inbounds nuw i8, ptr %26, i64 16
  store ptr %6, ptr %31, align 8, !tbaa !9
  ret ptr %26
}